; ModuleID = 'source-C-CXX/44/780.c'
source_filename = "source-C-CXX/44/780.c"
target datalayout = "e-m:e-p270:32:32-p271:32:32-p272:64:64-i64:64-f80:128-n8:16:32:64-S128"
target triple = "x86_64-pc-linux-gnu"

@.str = private unnamed_addr constant [6 x i8] c"%s %s\00", align 1
@.str.1 = private unnamed_addr constant [3 x i8] c"%d\00", align 1

; Function Attrs: nofree nounwind sspstrong uwtable
define dso_local i32 @main() local_unnamed_addr #0 {
  %1 = alloca [50 x i8], align 16
  %2 = alloca [50 x i8], align 16
  %3 = getelementptr inbounds [50 x i8], [50 x i8]* %1, i64 0, i64 0
  call void @llvm.lifetime.start.p0i8(i64 50, i8* nonnull %3) #3
  %4 = getelementptr inbounds [50 x i8], [50 x i8]* %2, i64 0, i64 0
  call void @llvm.lifetime.start.p0i8(i64 50, i8* nonnull %4) #3
  %5 = call i32 (i8*, ...) @__isoc99_scanf(i8* getelementptr inbounds ([6 x i8], [6 x i8]* @.str, i64 0, i64 0), i8* nonnull %3, i8* nonnull %4)
  %6 = load i8, i8* %3, align 16
  %7 = getelementptr inbounds [50 x i8], [50 x i8]* %1, i64 0, i64 1
  %8 = load i8, i8* %7, align 1
  %9 = load i8, i8* %4, align 16, !tbaa !5
  %10 = icmp eq i8 %9, 0
  br i1 %10, label %25, label %11

11:                                               ; preds = %0, %23
  %12 = phi i64 [ %15, %23 ], [ 0, %0 ]
  %13 = phi i8 [ %17, %23 ], [ %9, %0 ]
  %14 = icmp eq i8 %13, %6
  %15 = add nuw i64 %12, 1
  %16 = getelementptr inbounds [50 x i8], [50 x i8]* %2, i64 0, i64 %15
  %17 = load i8, i8* %16, align 1, !tbaa !5
  %18 = icmp eq i8 %17, %8
  %19 = select i1 %14, i1 %18, i1 false
  br i1 %19, label %20, label %23

20:                                               ; preds = %11
  %21 = trunc i64 %12 to i32
  %22 = call i32 (i8*, ...) @printf(i8* nonnull dereferenceable(1) getelementptr inbounds ([3 x i8], [3 x i8]* @.str.1, i64 0, i64 0), i32 %21)
  br label %25

23:                                               ; preds = %11
  %24 = icmp eq i8 %17, 0
  br i1 %24, label %25, label %11, !llvm.loop !8

25:                                               ; preds = %23, %0, %20
  call void @llvm.lifetime.end.p0i8(i64 50, i8* nonnull %4) #3
  call void @llvm.lifetime.end.p0i8(i64 50, i8* nonnull %3) #3
  ret i32 0
}

; Function Attrs: argmemonly mustprogress nofree nosync nounwind willreturn
declare void @llvm.lifetime.start.p0i8(i64 immarg, i8* nocapture) #1

; Function Attrs: nofree nounwind
declare noundef i32 @__isoc99_scanf(i8* nocapture noundef readonly, ...) local_unnamed_addr #2

; Function Attrs: nofree nounwind
declare noundef i32 @printf(i8* nocapture noundef readonly, ...) local_unnamed_addr #2

; Function Attrs: argmemonly mustprogress nofree nosync nounwind willreturn
declare void @llvm.lifetime.end.p0i8(i64 immarg, i8* nocapture) #1


!llvm.module.flags = !{!0, !1, !2, !3}
!llvm.ident = !{!4}

!0 = !{i32 1, !"wchar_size", i32 4}
!1 = !{i32 7, !"PIC Level", i32 2}
!2 = !{i32 7, !"PIE Level", i32 2}
!3 = !{i32 7, !"uwtable", i32 1}
!4 = !{!"clang version 13.0.0"}
!5 = !{!6, !6, i64 0}
!6 = !{!"omnipotent char", !7, i64 0}
!7 = !{!"Simple C/C++ TBAA"}
!8 = distinct !{!8, !9}
!9 = !{!"llvm.loop.mustprogress"}
